target datalayout = "e-m:e-p270:32:32-p271:32:32-p272:64:64-i64:64-i128:128-f80:128-n8:16:32:64-S128"
target triple = "x86_64-pc-linux-gnu"

; Function Attrs: nounwind uwtable
define dso_local zeroext i1 @btproperty(i32 noundef %0, i32 noundef %1, i32 noundef %2, ptr noundef %3, ptr noundef %4, ptr noundef %5) #0 {
  %7 = alloca i1, align 1
  %8 = alloca i32, align 4
  %9 = alloca i32, align 4
  %10 = alloca i32, align 4
  %11 = alloca ptr, align 8
  %12 = alloca ptr, align 8
  %13 = alloca ptr, align 8
  store i32 %0, ptr %8, align 4
  store i32 %1, ptr %9, align 4
  store i32 %2, ptr %10, align 4
  store ptr %3, ptr %11, align 8
  store ptr %4, ptr %12, align 8
  store ptr %5, ptr %13, align 8
  %14 = load i32, ptr %10, align 4
  switch i32 %14, label %21 [
    i32 7, label %15
  ]

15:                                               ; preds = %6
  %16 = load i32, ptr %9, align 4
  %17 = icmp eq i32 %16, 0
  br i1 %17, label %18, label %19

18:                                               ; preds = %15
  store i1 false, ptr %7, align 1
  br label %22

19:                                               ; preds = %15
  %20 = load ptr, ptr %12, align 8
  store i8 1, ptr %20, align 1
  store i1 true, ptr %7, align 1
  br label %22

21:                                               ; preds = %6
  store i1 false, ptr %7, align 1
  br label %22

22:                                               ; preds = %21, %19, %18
  %23 = load i1, ptr %7, align 1
  ret i1 %23
}