; Function Attrs: mustprogress nofree norecurse nosync nounwind willreturn memory(argmem: write) uwtable
define dso_local noundef zeroext i1 @btproperty(i32 noundef %0, i32 noundef %1, i32 noundef %2, ptr noundef readnone captures(none) %3, ptr noundef writeonly captures(none) %4, ptr noundef readnone captures(none) %5) local_unnamed_addr #9 {
  %cond = icmp eq i32 %2, 7
  %7 = icmp ne i32 %1, 0
  %or.cond.not = and i1 %7, %cond
  br i1 %or.cond.not, label %8, label %9

8:                                                ; preds = %6
  store i8 1, ptr %4, align 1
  br label %9

9:                                                ; preds = %6, %8
  ret i1 %or.cond.not
}